target datalayout = "e-m:e-p270:32:32-p271:32:32-p272:64:64-i64:64-i128:128-f80:128-n8:16:32:64-S128"
target triple = "x86_64-pc-linux-gnu"

%struct.evp_aead_ctx_st = type { ptr, ptr }
%struct.AEAD_TLS_CTX = type { %struct.evp_cipher_ctx_st, %struct.hmac_ctx_st, [64 x i8], i8, i8 }
%struct.evp_cipher_ctx_st = type { ptr, ptr, ptr, i32, i32, i32, [16 x i8], [16 x i8], [32 x i8], i32, i32, i32, i32, [32 x i8] }
%struct.hmac_ctx_st = type { ptr, %struct.env_md_ctx_st, %struct.env_md_ctx_st, %struct.env_md_ctx_st }
%struct.env_md_ctx_st = type { ptr, ptr, ptr, ptr }

@.str = private unnamed_addr constant [125 x i8] c"generated/home/dtcxzyw/WorkSpace/Projects/compilers/llvm-opt-benchmark/bench/libquic/libquic/boringssl/crypto/cipher/e_tls.c\00", align 1

; Function Attrs: nounwind uwtable
define internal i32 @aead_tls_seal(ptr noundef %0, ptr noundef %1, ptr noundef %2, i64 noundef %3, ptr noundef %4, i64 noundef %5, ptr noundef %6, i64 noundef %7, ptr noundef %8, i64 noundef %9) #0 {
  %11 = alloca i32, align 4
  %12 = alloca ptr, align 8
  %13 = alloca ptr, align 8
  %14 = alloca ptr, align 8
  %15 = alloca i64, align 8
  %16 = alloca ptr, align 8
  %17 = alloca i64, align 8
  %18 = alloca ptr, align 8
  %19 = alloca i64, align 8
  %20 = alloca ptr, align 8
  %21 = alloca i64, align 8
  %22 = alloca ptr, align 8
  %23 = alloca i64, align 8
  %24 = alloca i32, align 4
  %25 = alloca [2 x i8], align 1
  %26 = alloca [64 x i8], align 16
  %27 = alloca i32, align 4
  %28 = alloca i32, align 4
  %29 = alloca i32, align 4
  %30 = alloca [256 x i8], align 16
  %31 = alloca i32, align 4
  store ptr %0, ptr %12, align 8, !tbaa !6
  store ptr %1, ptr %13, align 8, !tbaa !11
  store ptr %2, ptr %14, align 8, !tbaa !21
  store i64 %3, ptr %15, align 8, !tbaa !13
  store ptr %4, ptr %16, align 8, !tbaa !11
  store i64 %5, ptr %17, align 8, !tbaa !13
  store ptr %6, ptr %18, align 8, !tbaa !11
  store i64 %7, ptr %19, align 8, !tbaa !13
  store ptr %8, ptr %20, align 8, !tbaa !11
  store i64 %9, ptr %21, align 8, !tbaa !13
  call void @llvm.lifetime.start.p0(i64 8, ptr %22) #8
  %32 = load ptr, ptr %12, align 8, !tbaa !6
  %33 = getelementptr inbounds nuw %struct.evp_aead_ctx_st, ptr %32, i32 0, i32 1
  %34 = load ptr, ptr %33, align 8, !tbaa !17
  store ptr %34, ptr %22, align 8, !tbaa !20
  call void @llvm.lifetime.start.p0(i64 8, ptr %23) #8
  store i64 0, ptr %23, align 8, !tbaa !13
  %35 = load ptr, ptr %22, align 8, !tbaa !20
  %36 = getelementptr inbounds nuw %struct.AEAD_TLS_CTX, ptr %35, i32 0, i32 0
  %37 = getelementptr inbounds nuw %struct.evp_cipher_ctx_st, ptr %36, i32 0, i32 4
  %38 = load i32, ptr %37, align 4, !tbaa !23
  %39 = icmp ne i32 %38, 0
  br i1 %39, label %41, label %40

40:                                               ; preds = %10
  call void @ERR_put_error(i32 noundef 30, i32 noundef 0, i32 noundef 112, ptr noundef @.str, i32 noundef 113)
  store i32 0, ptr %11, align 4
  store i32 1, ptr %24, align 4
  br label %221

41:                                               ; preds = %10
  %42 = load i64, ptr %19, align 8, !tbaa !13
  %43 = load ptr, ptr %12, align 8, !tbaa !6
  %44 = getelementptr inbounds nuw %struct.evp_aead_ctx_st, ptr %43, i32 0, i32 0
  %45 = load ptr, ptr %44, align 8, !tbaa !32
  %46 = call i64 @EVP_AEAD_max_overhead(ptr noundef %45)
  %47 = add i64 %42, %46
  %48 = load i64, ptr %19, align 8, !tbaa !13
  %49 = icmp ult i64 %47, %48
  br i1 %49, label %53, label %50

50:                                               ; preds = %41
  %51 = load i64, ptr %19, align 8, !tbaa !13
  %52 = icmp ugt i64 %51, 2147483647
  br i1 %52, label %53, label %54

53:                                               ; preds = %50, %41
  call void @ERR_put_error(i32 noundef 30, i32 noundef 0, i32 noundef 117, ptr noundef @.str, i32 noundef 120)
  store i32 0, ptr %11, align 4
  store i32 1, ptr %24, align 4
  br label %221

54:                                               ; preds = %50
  %55 = load i64, ptr %15, align 8, !tbaa !13
  %56 = load i64, ptr %19, align 8, !tbaa !13
  %57 = load ptr, ptr %12, align 8, !tbaa !6
  %58 = getelementptr inbounds nuw %struct.evp_aead_ctx_st, ptr %57, i32 0, i32 0
  %59 = load ptr, ptr %58, align 8, !tbaa !32
  %60 = call i64 @EVP_AEAD_max_overhead(ptr noundef %59)
  %61 = add i64 %56, %60
  %62 = icmp ult i64 %55, %61
  br i1 %62, label %63, label %64

63:                                               ; preds = %54
  call void @ERR_put_error(i32 noundef 30, i32 noundef 0, i32 noundef 103, ptr noundef @.str, i32 noundef 125)
  store i32 0, ptr %11, align 4
  store i32 1, ptr %24, align 4
  br label %221

64:                                               ; preds = %54
  %65 = load i64, ptr %17, align 8, !tbaa !13
  %66 = load ptr, ptr %12, align 8, !tbaa !6
  %67 = getelementptr inbounds nuw %struct.evp_aead_ctx_st, ptr %66, i32 0, i32 0
  %68 = load ptr, ptr %67, align 8, !tbaa !32
  %69 = call i64 @EVP_AEAD_nonce_length(ptr noundef %68)
  %70 = icmp ne i64 %65, %69
  br i1 %70, label %71, label %72

71:                                               ; preds = %64
  call void @ERR_put_error(i32 noundef 30, i32 noundef 0, i32 noundef 111, ptr noundef @.str, i32 noundef 130)
  store i32 0, ptr %11, align 4
  store i32 1, ptr %24, align 4
  br label %221

72:                                               ; preds = %64
  %73 = load i64, ptr %21, align 8, !tbaa !13
  %74 = icmp ne i64 %73, 11
  br i1 %74, label %75, label %76

75:                                               ; preds = %72
  call void @ERR_put_error(i32 noundef 30, i32 noundef 0, i32 noundef 109, ptr noundef @.str, i32 noundef 135)
  store i32 0, ptr %11, align 4
  store i32 1, ptr %24, align 4
  br label %221

76:                                               ; preds = %72
  call void @llvm.lifetime.start.p0(i64 2, ptr %25) #8
  %77 = load i64, ptr %19, align 8, !tbaa !13
  %78 = lshr i64 %77, 8
  %79 = trunc i64 %78 to i8
  %80 = getelementptr inbounds [2 x i8], ptr %25, i64 0, i64 0
  store i8 %79, ptr %80, align 1, !tbaa !33
  %81 = load i64, ptr %19, align 8, !tbaa !13
  %82 = and i64 %81, 255
  %83 = trunc i64 %82 to i8
  %84 = getelementptr inbounds [2 x i8], ptr %25, i64 0, i64 1
  store i8 %83, ptr %84, align 1, !tbaa !33
  call void @llvm.lifetime.start.p0(i64 64, ptr %26) #8
  call void @llvm.lifetime.start.p0(i64 4, ptr %27) #8
  %85 = load ptr, ptr %22, align 8, !tbaa !20
  %86 = getelementptr inbounds nuw %struct.AEAD_TLS_CTX, ptr %85, i32 0, i32 1
  %87 = call i32 @HMAC_Init_ex(ptr noundef %86, ptr noundef null, i64 noundef 0, ptr noundef null, ptr noundef null)
  %88 = icmp ne i32 %87, 0
  br i1 %88, label %89, label %115

89:                                               ; preds = %76
  %90 = load ptr, ptr %22, align 8, !tbaa !20
  %91 = getelementptr inbounds nuw %struct.AEAD_TLS_CTX, ptr %90, i32 0, i32 1
  %92 = load ptr, ptr %20, align 8, !tbaa !11
  %93 = load i64, ptr %21, align 8, !tbaa !13
  %94 = call i32 @HMAC_Update(ptr noundef %91, ptr noundef %92, i64 noundef %93)
  %95 = icmp ne i32 %94, 0
  br i1 %95, label %96, label %115

96:                                               ; preds = %89
  %97 = load ptr, ptr %22, align 8, !tbaa !20
  %98 = getelementptr inbounds nuw %struct.AEAD_TLS_CTX, ptr %97, i32 0, i32 1
  %99 = getelementptr inbounds [2 x i8], ptr %25, i64 0, i64 0
  %100 = call i32 @HMAC_Update(ptr noundef %98, ptr noundef %99, i64 noundef 2)
  %101 = icmp ne i32 %100, 0
  br i1 %101, label %102, label %115

102:                                              ; preds = %96
  %103 = load ptr, ptr %22, align 8, !tbaa !20
  %104 = getelementptr inbounds nuw %struct.AEAD_TLS_CTX, ptr %103, i32 0, i32 1
  %105 = load ptr, ptr %18, align 8, !tbaa !11
  %106 = load i64, ptr %19, align 8, !tbaa !13
  %107 = call i32 @HMAC_Update(ptr noundef %104, ptr noundef %105, i64 noundef %106)
  %108 = icmp ne i32 %107, 0
  br i1 %108, label %109, label %115

109:                                              ; preds = %102
  %110 = load ptr, ptr %22, align 8, !tbaa !20
  %111 = getelementptr inbounds nuw %struct.AEAD_TLS_CTX, ptr %110, i32 0, i32 1
  %112 = getelementptr inbounds [64 x i8], ptr %26, i64 0, i64 0
  %113 = call i32 @HMAC_Final(ptr noundef %111, ptr noundef %112, ptr noundef %27)
  %114 = icmp ne i32 %113, 0
  br i1 %114, label %116, label %115

115:                                              ; preds = %109, %102, %96, %89, %76
  store i32 0, ptr %11, align 4
  store i32 1, ptr %24, align 4
  br label %220

116:                                              ; preds = %109
  %117 = load ptr, ptr %22, align 8, !tbaa !20
  %118 = getelementptr inbounds nuw %struct.AEAD_TLS_CTX, ptr %117, i32 0, i32 0
  %119 = call i32 @EVP_CIPHER_CTX_mode(ptr noundef %118)
  %120 = icmp eq i32 %119, 2
  br i1 %120, label %121, label %133

121:                                              ; preds = %116
  %122 = load ptr, ptr %22, align 8, !tbaa !20
  %123 = getelementptr inbounds nuw %struct.AEAD_TLS_CTX, ptr %122, i32 0, i32 4
  %124 = load i8, ptr %123, align 1, !tbaa !34
  %125 = icmp ne i8 %124, 0
  br i1 %125, label %133, label %126

126:                                              ; preds = %121
  %127 = load ptr, ptr %22, align 8, !tbaa !20
  %128 = getelementptr inbounds nuw %struct.AEAD_TLS_CTX, ptr %127, i32 0, i32 0
  %129 = load ptr, ptr %16, align 8, !tbaa !11
  %130 = call i32 @EVP_EncryptInit_ex(ptr noundef %128, ptr noundef null, ptr noundef null, ptr noundef null, ptr noundef %129)
  %131 = icmp ne i32 %130, 0
  br i1 %131, label %133, label %132

132:                                              ; preds = %126
  store i32 0, ptr %11, align 4
  store i32 1, ptr %24, align 4
  br label %220

133:                                              ; preds = %126, %121, %116
  call void @llvm.lifetime.start.p0(i64 4, ptr %28) #8
  %134 = load ptr, ptr %22, align 8, !tbaa !20
  %135 = getelementptr inbounds nuw %struct.AEAD_TLS_CTX, ptr %134, i32 0, i32 0
  %136 = load ptr, ptr %13, align 8, !tbaa !11
  %137 = load ptr, ptr %18, align 8, !tbaa !11
  %138 = load i64, ptr %19, align 8, !tbaa !13
  %139 = trunc i64 %138 to i32
  %140 = call i32 @EVP_EncryptUpdate(ptr noundef %135, ptr noundef %136, ptr noundef %28, ptr noundef %137, i32 noundef %139)
  %141 = icmp ne i32 %140, 0
  br i1 %141, label %143, label %142

142:                                              ; preds = %133
  store i32 0, ptr %11, align 4
  store i32 1, ptr %24, align 4
  br label %219

143:                                              ; preds = %133
  %144 = load i32, ptr %28, align 4, !tbaa !15
  %145 = sext i32 %144 to i64
  store i64 %145, ptr %23, align 8, !tbaa !13
  %146 = load ptr, ptr %22, align 8, !tbaa !20
  %147 = getelementptr inbounds nuw %struct.AEAD_TLS_CTX, ptr %146, i32 0, i32 0
  %148 = load ptr, ptr %13, align 8, !tbaa !11
  %149 = load i64, ptr %23, align 8, !tbaa !13
  %150 = getelementptr inbounds nuw i8, ptr %148, i64 %149
  %151 = getelementptr inbounds [64 x i8], ptr %26, i64 0, i64 0
  %152 = load i32, ptr %27, align 4, !tbaa !15
  %153 = call i32 @EVP_EncryptUpdate(ptr noundef %147, ptr noundef %150, ptr noundef %28, ptr noundef %151, i32 noundef %152)
  %154 = icmp ne i32 %153, 0
  br i1 %154, label %156, label %155

155:                                              ; preds = %143
  store i32 0, ptr %11, align 4
  store i32 1, ptr %24, align 4
  br label %219

156:                                              ; preds = %143
  %157 = load i32, ptr %28, align 4, !tbaa !15
  %158 = sext i32 %157 to i64
  %159 = load i64, ptr %23, align 8, !tbaa !13
  %160 = add i64 %159, %158
  store i64 %160, ptr %23, align 8, !tbaa !13
  call void @llvm.lifetime.start.p0(i64 4, ptr %29) #8
  %161 = load ptr, ptr %22, align 8, !tbaa !20
  %162 = getelementptr inbounds nuw %struct.AEAD_TLS_CTX, ptr %161, i32 0, i32 0
  %163 = call i32 @EVP_CIPHER_CTX_block_size(ptr noundef %162)
  store i32 %163, ptr %29, align 4, !tbaa !15
  %164 = load i32, ptr %29, align 4, !tbaa !15
  %165 = icmp ugt i32 %164, 1
  br i1 %165, label %166, label %202

166:                                              ; preds = %156
  call void @llvm.lifetime.start.p0(i64 256, ptr %30) #8
  call void @llvm.lifetime.start.p0(i64 4, ptr %31) #8
  %167 = load i32, ptr %29, align 4, !tbaa !15
  %168 = zext i32 %167 to i64
  %169 = load i64, ptr %19, align 8, !tbaa !13
  %170 = load i32, ptr %27, align 4, !tbaa !15
  %171 = zext i32 %170 to i64
  %172 = add i64 %169, %171
  %173 = load i32, ptr %29, align 4, !tbaa !15
  %174 = zext i32 %173 to i64
  %175 = urem i64 %172, %174
  %176 = sub i64 %168, %175
  %177 = trunc i64 %176 to i32
  store i32 %177, ptr %31, align 4, !tbaa !15
  %178 = getelementptr inbounds [256 x i8], ptr %30, i64 0, i64 0
  %179 = load i32, ptr %31, align 4, !tbaa !15
  %180 = sub i32 %179, 1
  %181 = trunc i32 %180 to i8
  %182 = load i32, ptr %31, align 4, !tbaa !15
  %183 = zext i32 %182 to i64
  call void @llvm.memset.p0.i64(ptr align 16 %178, i8 %181, i64 %183, i1 false)
  %184 = load ptr, ptr %22, align 8, !tbaa !20
  %185 = getelementptr inbounds nuw %struct.AEAD_TLS_CTX, ptr %184, i32 0, i32 0
  %186 = load ptr, ptr %13, align 8, !tbaa !11
  %187 = load i64, ptr %23, align 8, !tbaa !13
  %188 = getelementptr inbounds nuw i8, ptr %186, i64 %187
  %189 = getelementptr inbounds [256 x i8], ptr %30, i64 0, i64 0
  %190 = load i32, ptr %31, align 4, !tbaa !15
  %191 = call i32 @EVP_EncryptUpdate(ptr noundef %185, ptr noundef %188, ptr noundef %28, ptr noundef %189, i32 noundef %190)
  %192 = icmp ne i32 %191, 0
  br i1 %192, label %194, label %193

193:                                              ; preds = %166
  store i32 0, ptr %11, align 4
  store i32 1, ptr %24, align 4
  br label %199

194:                                              ; preds = %166
  %195 = load i32, ptr %28, align 4, !tbaa !15
  %196 = sext i32 %195 to i64
  %197 = load i64, ptr %23, align 8, !tbaa !13
  %198 = add i64 %197, %196
  store i64 %198, ptr %23, align 8, !tbaa !13
  store i32 0, ptr %24, align 4
  br label %199

199:                                              ; preds = %194, %193
  call void @llvm.lifetime.end.p0(i64 4, ptr %31) #8
  call void @llvm.lifetime.end.p0(i64 256, ptr %30) #8
  %200 = load i32, ptr %24, align 4
  switch i32 %200, label %218 [
    i32 0, label %201
  ]

201:                                              ; preds = %199
  br label %202

202:                                              ; preds = %201, %156
  %203 = load ptr, ptr %22, align 8, !tbaa !20
  %204 = getelementptr inbounds nuw %struct.AEAD_TLS_CTX, ptr %203, i32 0, i32 0
  %205 = load ptr, ptr %13, align 8, !tbaa !11
  %206 = load i64, ptr %23, align 8, !tbaa !13
  %207 = getelementptr inbounds nuw i8, ptr %205, i64 %206
  %208 = call i32 @EVP_EncryptFinal_ex(ptr noundef %204, ptr noundef %207, ptr noundef %28)
  %209 = icmp ne i32 %208, 0
  br i1 %209, label %211, label %210

210:                                              ; preds = %202
  store i32 0, ptr %11, align 4
  store i32 1, ptr %24, align 4
  br label %218

211:                                              ; preds = %202
  %212 = load i32, ptr %28, align 4, !tbaa !15
  %213 = sext i32 %212 to i64
  %214 = load i64, ptr %23, align 8, !tbaa !13
  %215 = add i64 %214, %213
  store i64 %215, ptr %23, align 8, !tbaa !13
  %216 = load i64, ptr %23, align 8, !tbaa !13
  %217 = load ptr, ptr %14, align 8, !tbaa !21
  store i64 %216, ptr %217, align 8, !tbaa !13
  store i32 1, ptr %11, align 4
  store i32 1, ptr %24, align 4
  br label %218

218:                                              ; preds = %211, %210, %199
  call void @llvm.lifetime.end.p0(i64 4, ptr %29) #8
  br label %219

219:                                              ; preds = %218, %155, %142
  call void @llvm.lifetime.end.p0(i64 4, ptr %28) #8
  br label %220

220:                                              ; preds = %219, %132, %115
  call void @llvm.lifetime.end.p0(i64 4, ptr %27) #8
  call void @llvm.lifetime.end.p0(i64 64, ptr %26) #8
  call void @llvm.lifetime.end.p0(i64 2, ptr %25) #8
  br label %221

221:                                              ; preds = %220, %75, %71, %63, %53, %40
  call void @llvm.lifetime.end.p0(i64 8, ptr %23) #8
  call void @llvm.lifetime.end.p0(i64 8, ptr %22) #8
  %222 = load i32, ptr %11, align 4
  ret i32 %222
}