; Function Attrs: nounwind uwtable
define internal range(i32 0, 2) i32 @aead_tls_seal(ptr noundef readonly captures(none) %0, ptr noundef %1, ptr noundef writeonly captures(none) %2, i64 noundef %3, ptr noundef %4, i64 noundef %5, ptr noundef %6, i64 noundef %7, ptr noundef %8, i64 noundef %9) #1 {
  %11 = alloca [2 x i8], align 1
  %12 = alloca [64 x i8], align 16
  %13 = alloca i32, align 4
  %14 = alloca i32, align 4
  %15 = alloca [256 x i8], align 16
  %16 = getelementptr inbounds nuw i8, ptr %0, i64 8
  %17 = load ptr, ptr %16, align 8, !tbaa !6
  %18 = getelementptr inbounds nuw i8, ptr %17, i64 28
  %19 = load i32, ptr %18, align 4, !tbaa !12
  %.not = icmp eq i32 %19, 0
  br i1 %.not, label %20, label %21

20:                                               ; preds = %10
  tail call void @ERR_put_error(i32 noundef 30, i32 noundef 0, i32 noundef 112, ptr noundef nonnull @.str, i32 noundef 113) #8
  br label %103

21:                                               ; preds = %10
  %22 = load ptr, ptr %0, align 8, !tbaa !22
  %23 = tail call i64 @EVP_AEAD_max_overhead(ptr noundef %22) #8
  %24 = xor i64 %7, -1
  %25 = icmp ugt i64 %23, %24
  %26 = icmp ugt i64 %7, 2147483647
  %or.cond = or i1 %26, %25
  br i1 %or.cond, label %27, label %28

27:                                               ; preds = %21
  tail call void @ERR_put_error(i32 noundef 30, i32 noundef 0, i32 noundef 117, ptr noundef nonnull @.str, i32 noundef 120) #8
  br label %103

28:                                               ; preds = %21
  %29 = load ptr, ptr %0, align 8, !tbaa !22
  %30 = tail call i64 @EVP_AEAD_max_overhead(ptr noundef %29) #8
  %31 = add i64 %30, %7
  %32 = icmp ult i64 %3, %31
  br i1 %32, label %33, label %34

33:                                               ; preds = %28
  tail call void @ERR_put_error(i32 noundef 30, i32 noundef 0, i32 noundef 103, ptr noundef nonnull @.str, i32 noundef 125) #8
  br label %103

34:                                               ; preds = %28
  %35 = load ptr, ptr %0, align 8, !tbaa !22
  %36 = tail call i64 @EVP_AEAD_nonce_length(ptr noundef %35) #8
  %.not61 = icmp eq i64 %5, %36
  br i1 %.not61, label %38, label %37

37:                                               ; preds = %34
  tail call void @ERR_put_error(i32 noundef 30, i32 noundef 0, i32 noundef 111, ptr noundef nonnull @.str, i32 noundef 130) #8
  br label %103

38:                                               ; preds = %34
  %.not62 = icmp eq i64 %9, 11
  br i1 %.not62, label %40, label %39

39:                                               ; preds = %38
  tail call void @ERR_put_error(i32 noundef 30, i32 noundef 0, i32 noundef 109, ptr noundef nonnull @.str, i32 noundef 135) #8
  br label %103

40:                                               ; preds = %38
  call void @llvm.lifetime.start.p0(i64 2, ptr nonnull %11) #8
  %41 = lshr i64 %7, 8
  %42 = trunc i64 %41 to i8
  store i8 %42, ptr %11, align 1, !tbaa !23
  %43 = trunc i64 %7 to i8
  %44 = getelementptr inbounds nuw i8, ptr %11, i64 1
  store i8 %43, ptr %44, align 1, !tbaa !23
  call void @llvm.lifetime.start.p0(i64 64, ptr nonnull %12) #8
  call void @llvm.lifetime.start.p0(i64 4, ptr nonnull %13) #8
  %45 = getelementptr inbounds nuw i8, ptr %17, i64 152
  %46 = tail call i32 @HMAC_Init_ex(ptr noundef nonnull %45, ptr noundef null, i64 noundef 0, ptr noundef null, ptr noundef null) #8
  %.not63 = icmp eq i32 %46, 0
  br i1 %.not63, label %102, label %47

47:                                               ; preds = %40
  %48 = tail call i32 @HMAC_Update(ptr noundef nonnull %45, ptr noundef %8, i64 noundef 11) #8
  %.not64 = icmp eq i32 %48, 0
  br i1 %.not64, label %102, label %49

49:                                               ; preds = %47
  %50 = call i32 @HMAC_Update(ptr noundef nonnull %45, ptr noundef nonnull %11, i64 noundef 2) #8
  %.not65 = icmp eq i32 %50, 0
  br i1 %.not65, label %102, label %51

51:                                               ; preds = %49
  %52 = call i32 @HMAC_Update(ptr noundef nonnull %45, ptr noundef %6, i64 noundef %7) #8
  %.not66 = icmp eq i32 %52, 0
  br i1 %.not66, label %102, label %53

53:                                               ; preds = %51
  %54 = call i32 @HMAC_Final(ptr noundef nonnull %45, ptr noundef nonnull %12, ptr noundef nonnull %13) #8
  %.not67 = icmp eq i32 %54, 0
  br i1 %.not67, label %102, label %55

55:                                               ; preds = %53
  %56 = call i32 @EVP_CIPHER_CTX_mode(ptr noundef nonnull %17) #8
  %57 = icmp eq i32 %56, 2
  br i1 %57, label %58, label %63

58:                                               ; preds = %55
  %59 = getelementptr inbounds nuw i8, ptr %17, i64 321
  %60 = load i8, ptr %59, align 1, !tbaa !24
  %.not68 = icmp eq i8 %60, 0
  br i1 %.not68, label %61, label %63

61:                                               ; preds = %58
  %62 = call i32 @EVP_EncryptInit_ex(ptr noundef nonnull %17, ptr noundef null, ptr noundef null, ptr noundef null, ptr noundef %4) #8
  %.not69 = icmp eq i32 %62, 0
  br i1 %.not69, label %102, label %63

63:                                               ; preds = %61, %58, %55
  call void @llvm.lifetime.start.p0(i64 4, ptr nonnull %14) #8
  %64 = trunc nuw nsw i64 %7 to i32
  %65 = call i32 @EVP_EncryptUpdate(ptr noundef nonnull %17, ptr noundef %1, ptr noundef nonnull %14, ptr noundef %6, i32 noundef %64) #8
  %.not70 = icmp eq i32 %65, 0
  br i1 %.not70, label %101, label %66

66:                                               ; preds = %63
  %67 = load i32, ptr %14, align 4, !tbaa !25
  %68 = sext i32 %67 to i64
  %69 = getelementptr inbounds nuw i8, ptr %1, i64 %68
  %70 = load i32, ptr %13, align 4, !tbaa !25
  %71 = call i32 @EVP_EncryptUpdate(ptr noundef nonnull %17, ptr noundef %69, ptr noundef nonnull %14, ptr noundef nonnull %12, i32 noundef %70) #8
  %.not71 = icmp eq i32 %71, 0
  br i1 %.not71, label %101, label %72

72:                                               ; preds = %66
  %73 = load i32, ptr %14, align 4, !tbaa !25
  %74 = sext i32 %73 to i64
  %75 = add nsw i64 %74, %68
  %76 = call i32 @EVP_CIPHER_CTX_block_size(ptr noundef nonnull %17) #8
  %77 = icmp ugt i32 %76, 1
  br i1 %77, label %78, label %94

78:                                               ; preds = %72
  call void @llvm.lifetime.start.p0(i64 256, ptr nonnull %15) #8
  %79 = zext i32 %76 to i64
  %80 = load i32, ptr %13, align 4, !tbaa !25
  %81 = zext i32 %80 to i64
  %82 = add nuw nsw i64 %7, %81
  %83 = urem i64 %82, %79
  %84 = trunc nuw i64 %83 to i32
  %85 = sub i32 %76, %84
  %86 = trunc i32 %85 to i8
  %87 = add i8 %86, -1
  %88 = zext i32 %85 to i64
  call void @llvm.memset.p0.i64(ptr nonnull align 16 %15, i8 %87, i64 %88, i1 false)
  %89 = getelementptr inbounds nuw i8, ptr %1, i64 %75
  %90 = call i32 @EVP_EncryptUpdate(ptr noundef nonnull %17, ptr noundef %89, ptr noundef nonnull %14, ptr noundef nonnull %15, i32 noundef %85) #8
  %.not72.not = icmp eq i32 %90, 0
  %91 = load i32, ptr %14, align 4
  %92 = sext i32 %91 to i64
  %93 = add nsw i64 %75, %92
  call void @llvm.lifetime.end.p0(i64 256, ptr nonnull %15) #8
  br i1 %.not72.not, label %101, label %94

94:                                               ; preds = %78, %72
  %.055 = phi i64 [ %93, %78 ], [ %75, %72 ]
  %95 = getelementptr inbounds nuw i8, ptr %1, i64 %.055
  %96 = call i32 @EVP_EncryptFinal_ex(ptr noundef nonnull %17, ptr noundef %95, ptr noundef nonnull %14) #8
  %.not73 = icmp eq i32 %96, 0
  br i1 %.not73, label %101, label %97

97:                                               ; preds = %94
  %98 = load i32, ptr %14, align 4, !tbaa !25
  %99 = sext i32 %98 to i64
  %100 = add nsw i64 %.055, %99
  store i64 %100, ptr %2, align 8, !tbaa !26
  br label %101

101:                                              ; preds = %97, %78, %94, %66, %63
  %.2 = phi i32 [ 0, %63 ], [ 0, %66 ], [ 1, %97 ], [ 0, %78 ], [ 0, %94 ]
  call void @llvm.lifetime.end.p0(i64 4, ptr nonnull %14) #8
  br label %102

102:                                              ; preds = %61, %40, %47, %49, %51, %53, %101
  %.1 = phi i32 [ %.2, %101 ], [ 0, %53 ], [ 0, %51 ], [ 0, %49 ], [ 0, %47 ], [ 0, %40 ], [ 0, %61 ]
  call void @llvm.lifetime.end.p0(i64 4, ptr nonnull %13) #8
  call void @llvm.lifetime.end.p0(i64 64, ptr nonnull %12) #8
  call void @llvm.lifetime.end.p0(i64 2, ptr nonnull %11) #8
  br label %103

103:                                              ; preds = %102, %39, %37, %33, %27, %20
  %.0 = phi i32 [ 0, %27 ], [ 0, %33 ], [ 0, %37 ], [ 0, %39 ], [ %.1, %102 ], [ 0, %20 ]
  ret i32 %.0
}